target datalayout = "e-m:e-p270:32:32-p271:32:32-p272:64:64-i64:64-i128:128-f80:128-n8:16:32:64-S128"
target triple = "x86_64-pc-linux-gnu"

%struct.cli_asn1 = type { i8, i32, ptr, ptr }

@.str.275 = private unnamed_addr constant [51 x i8] c"asn1_expect_objtype: expected type %02x, got %02x\0A\00", align 1

; Function Attrs: nounwind uwtable
define internal i32 @asn1_expect_objtype(ptr noundef %0, ptr noundef %1, ptr noundef %2, ptr noundef %3, i8 noundef zeroext %4) #0 {
  %6 = alloca i32, align 4
  %7 = alloca ptr, align 8
  %8 = alloca ptr, align 8
  %9 = alloca ptr, align 8
  %10 = alloca ptr, align 8
  %11 = alloca i8, align 1
  %12 = alloca i32, align 4
  %13 = alloca i32, align 4
  store ptr %0, ptr %7, align 8, !tbaa !3
  store ptr %1, ptr %8, align 8, !tbaa !62
  store ptr %2, ptr %9, align 8, !tbaa !63
  store ptr %3, ptr %10, align 8, !tbaa !83
  store i8 %4, ptr %11, align 1, !tbaa !22
  call void @llvm.lifetime.start.p0(i64 4, ptr %12) #8
  %14 = load ptr, ptr %7, align 8, !tbaa !3
  %15 = load ptr, ptr %8, align 8, !tbaa !62
  %16 = load ptr, ptr %9, align 8, !tbaa !63
  %17 = load ptr, ptr %10, align 8, !tbaa !83
  %18 = call i32 @asn1_get_obj(ptr noundef %14, ptr noundef %15, ptr noundef %16, ptr noundef %17)
  store i32 %18, ptr %12, align 4, !tbaa !20
  %19 = load i32, ptr %12, align 4, !tbaa !20
  %20 = icmp ne i32 %19, 0
  br i1 %20, label %21, label %23

21:                                               ; preds = %5
  %22 = load i32, ptr %12, align 4, !tbaa !20
  store i32 %22, ptr %6, align 4
  store i32 1, ptr %13, align 4
  br label %39

23:                                               ; preds = %5
  %24 = load ptr, ptr %10, align 8, !tbaa !83
  %25 = getelementptr inbounds nuw %struct.cli_asn1, ptr %24, i32 0, i32 0
  %26 = load i8, ptr %25, align 8, !tbaa !82
  %27 = zext i8 %26 to i32
  %28 = load i8, ptr %11, align 1, !tbaa !22
  %29 = zext i8 %28 to i32
  %30 = icmp ne i32 %27, %29
  br i1 %30, label %31, label %38

31:                                               ; preds = %23
  %32 = load i8, ptr %11, align 1, !tbaa !22
  %33 = zext i8 %32 to i32
  %34 = load ptr, ptr %10, align 8, !tbaa !83
  %35 = getelementptr inbounds nuw %struct.cli_asn1, ptr %34, i32 0, i32 0
  %36 = load i8, ptr %35, align 8, !tbaa !82
  %37 = zext i8 %36 to i32
  call void (ptr, ...) @cli_dbgmsg(ptr noundef @.str.275, i32 noundef %33, i32 noundef %37)
  store i32 1, ptr %6, align 4
  store i32 1, ptr %13, align 4
  br label %39

38:                                               ; preds = %23
  store i32 0, ptr %6, align 4
  store i32 1, ptr %13, align 4
  br label %39

39:                                               ; preds = %38, %31, %21
  call void @llvm.lifetime.end.p0(i64 4, ptr %12) #8
  %40 = load i32, ptr %6, align 4
  ret i32 %40
}