; Function Attrs: nounwind uwtable
define internal fastcc range(i32 0, 2) i32 @asn1_expect_objtype(ptr noundef %0, ptr noundef %1, ptr noundef nonnull captures(none) %2, ptr noundef nonnull captures(none) %3, i8 noundef zeroext range(i8 -96, 50) %4) unnamed_addr #0 {
  %6 = tail call fastcc i32 @asn1_get_obj(ptr noundef %0, ptr noundef %1, ptr noundef %2, ptr noundef %3)
  %.not = icmp eq i32 %6, 0
  br i1 %.not, label %7, label %12

7:                                                ; preds = %5
  %8 = load i8, ptr %3, align 8, !tbaa !15
  %.not13 = icmp eq i8 %8, %4
  br i1 %.not13, label %12, label %9

9:                                                ; preds = %7
  %10 = zext i8 %4 to i32
  %11 = zext i8 %8 to i32
  tail call void (ptr, ...) @cli_dbgmsg(ptr noundef nonnull @.str.275, i32 noundef %10, i32 noundef %11) #11
  br label %12

12:                                               ; preds = %7, %5, %9
  %.0 = phi i32 [ 1, %9 ], [ 1, %5 ], [ 0, %7 ]
  ret i32 %.0
}